target datalayout = "e-m:e-p270:32:32-p271:32:32-p272:64:64-i64:64-i128:128-f80:128-n8:16:32:64-S128"
target triple = "x86_64-pc-linux-gnu"

%struct.uv_spinlock_t = type { i32 }
%struct.termios = type { i32, i32, i32, i32, i8, [32 x i8], i32, i32 }

@termios_spinlock = internal global %struct.uv_spinlock_t zeroinitializer, align 4
@orig_termios_fd = internal global i32 -1, align 4
@orig_termios = internal global %struct.termios zeroinitializer, align 4

; Function Attrs: nounwind uwtable
define internal i32 @cmpxchgi(ptr noundef %0, i32 noundef %1, i32 noundef %2) #0 {
  %4 = alloca ptr, align 8
  %5 = alloca i32, align 4
  %6 = alloca i32, align 4
  %7 = alloca i32, align 4
  store ptr %0, ptr %4, align 8, !tbaa !42
  store i32 %1, ptr %5, align 4, !tbaa !4
  store i32 %2, ptr %6, align 4, !tbaa !4
  call void @llvm.lifetime.start.p0(i64 4, ptr %7) #6
  %8 = load ptr, ptr %4, align 8, !tbaa !42
  %9 = load i32, ptr %6, align 4, !tbaa !4
  %10 = load i32, ptr %5, align 4, !tbaa !4
  %11 = call i32 asm sideeffect "lock; cmpxchg $2, $1;", "={ax},=*m,r,0,*m,~{memory},~{dirflag},~{fpsr},~{flags}"(ptr elementtype(i32) %8, i32 %9, i32 %10, ptr elementtype(i32) %8) #6, !srcloc !49
  store i32 %11, ptr %7, align 4, !tbaa !4
  %12 = load i32, ptr %7, align 4, !tbaa !4
  call void @llvm.lifetime.end.p0(i64 4, ptr %7) #6
  ret i32 %12
}

; Function Attrs: nounwind uwtable
define internal void @uv_spinlock_unlock(ptr noundef %0) #0 {
  %2 = alloca ptr, align 8
  store ptr %0, ptr %2, align 8, !tbaa !40
  %3 = load ptr, ptr %2, align 8, !tbaa !40
  %4 = getelementptr inbounds nuw %struct.uv_spinlock_t, ptr %3, i32 0, i32 0
  store volatile i32 0, ptr %4, align 4, !tbaa !4
  ret void
}

; Function Attrs: nounwind uwtable
define dso_local i32 @uv__tcsetattr(i32 noundef %0, i32 noundef %1, ptr noundef %2) #0 {
  %4 = alloca i32, align 4
  %5 = alloca i32, align 4
  %6 = alloca i32, align 4
  %7 = alloca ptr, align 8
  %8 = alloca i32, align 4
  %9 = alloca i32, align 4
  store i32 %0, ptr %5, align 4, !tbaa !4
  store i32 %1, ptr %6, align 4, !tbaa !4
  store ptr %2, ptr %7, align 8, !tbaa !8
  call void @llvm.lifetime.start.p0(i64 4, ptr %8) #6
  br label %10

10:                                               ; preds = %22, %3
  %11 = load i32, ptr %5, align 4, !tbaa !4
  %12 = load i32, ptr %6, align 4, !tbaa !4
  %13 = load ptr, ptr %7, align 8, !tbaa !8
  %14 = call i32 @tcsetattr(i32 noundef %11, i32 noundef %12, ptr noundef %13) #6
  store i32 %14, ptr %8, align 4, !tbaa !4
  br label %15

15:                                               ; preds = %10
  %16 = load i32, ptr %8, align 4, !tbaa !4
  %17 = icmp eq i32 %16, -1
  br i1 %17, label %18, label %22

18:                                               ; preds = %15
  %19 = call ptr @__errno_location() #7
  %20 = load i32, ptr %19, align 4, !tbaa !4
  %21 = icmp eq i32 %20, 4
  br label %22

22:                                               ; preds = %18, %15
  %23 = phi i1 [ false, %15 ], [ %21, %18 ]
  br i1 %23, label %10, label %24, !llvm.loop !11

24:                                               ; preds = %22
  %25 = load i32, ptr %8, align 4, !tbaa !4
  %26 = icmp eq i32 %25, -1
  br i1 %26, label %27, label %31

27:                                               ; preds = %24
  %28 = call ptr @__errno_location() #7
  %29 = load i32, ptr %28, align 4, !tbaa !4
  %30 = sub nsw i32 0, %29
  store i32 %30, ptr %4, align 4
  store i32 1, ptr %9, align 4
  br label %32

31:                                               ; preds = %24
  store i32 0, ptr %4, align 4
  store i32 1, ptr %9, align 4
  br label %32

32:                                               ; preds = %31, %27
  call void @llvm.lifetime.end.p0(i64 4, ptr %8) #6
  %33 = load i32, ptr %4, align 4
  ret i32 %33
}

; Function Attrs: nounwind uwtable
define internal i32 @uv_spinlock_trylock(ptr noundef %0) #0 {
  %2 = alloca ptr, align 8
  store ptr %0, ptr %2, align 8, !tbaa !40
  %3 = load ptr, ptr %2, align 8, !tbaa !40
  %4 = getelementptr inbounds nuw %struct.uv_spinlock_t, ptr %3, i32 0, i32 0
  %5 = call i32 @cmpxchgi(ptr noundef %4, i32 noundef 0, i32 noundef 1)
  %6 = icmp eq i32 0, %5
  %7 = zext i1 %6 to i32
  ret i32 %7
}

; Function Attrs: nounwind uwtable
define dso_local i32 @uv_tty_reset_mode() #0 {
  %1 = alloca i32, align 4
  %2 = alloca i32, align 4
  %3 = alloca i32, align 4
  %4 = alloca i32, align 4
  call void @llvm.lifetime.start.p0(i64 4, ptr %2) #6
  call void @llvm.lifetime.start.p0(i64 4, ptr %3) #6
  %5 = call ptr @__errno_location() #7
  %6 = load i32, ptr %5, align 4, !tbaa !4
  store i32 %6, ptr %2, align 4, !tbaa !4
  %7 = call i32 @uv_spinlock_trylock(ptr noundef @termios_spinlock)
  %8 = icmp ne i32 %7, 0
  br i1 %8, label %10, label %9

9:                                                ; preds = %0
  store i32 -16, ptr %1, align 4
  store i32 1, ptr %4, align 4
  br label %20

10:                                               ; preds = %0
  store i32 0, ptr %3, align 4, !tbaa !4
  %11 = load i32, ptr @orig_termios_fd, align 4, !tbaa !4
  %12 = icmp ne i32 %11, -1
  br i1 %12, label %13, label %16

13:                                               ; preds = %10
  %14 = load i32, ptr @orig_termios_fd, align 4, !tbaa !4
  %15 = call i32 @uv__tcsetattr(i32 noundef %14, i32 noundef 0, ptr noundef @orig_termios)
  store i32 %15, ptr %3, align 4, !tbaa !4
  br label %16

16:                                               ; preds = %13, %10
  call void @uv_spinlock_unlock(ptr noundef @termios_spinlock)
  %17 = load i32, ptr %2, align 4, !tbaa !4
  %18 = call ptr @__errno_location() #7
  store i32 %17, ptr %18, align 4, !tbaa !4
  %19 = load i32, ptr %3, align 4, !tbaa !4
  store i32 %19, ptr %1, align 4
  store i32 1, ptr %4, align 4
  br label %20

20:                                               ; preds = %16, %9
  call void @llvm.lifetime.end.p0(i64 4, ptr %3) #6
  call void @llvm.lifetime.end.p0(i64 4, ptr %2) #6
  %21 = load i32, ptr %1, align 4
  ret i32 %21
}